; Function Attrs: mustprogress uwtable
define void @_ZN5Ipopt16NLPScalingObject24unapply_grad_obj_scalingERKNS_8SmartPtrIKNS_6VectorEEE(ptr dead_on_unwind noalias writable sret(%"class.Ipopt::SmartPtr.1") align 8 %0, ptr noundef nonnull align 8 dereferenceable(24) %1, ptr noundef nonnull align 8 dereferenceable(8) %2) unnamed_addr #7 align 2 personality ptr @__gxx_personality_v0 {
  %4 = alloca double, align 8
  %5 = alloca %"class.Ipopt::SmartPtr.0", align 8
  call void @llvm.lifetime.start.p0(i64 8, ptr nonnull %4) #17
  store double 1.000000e+00, ptr %4, align 8, !tbaa !68
  %6 = load ptr, ptr %1, align 8, !tbaa !8
  %7 = getelementptr inbounds nuw i8, ptr %6, i64 24
  %8 = load ptr, ptr %7, align 8
  %9 = call noundef double %8(ptr noundef nonnull align 8 dereferenceable(24) %1, ptr noundef nonnull align 8 dereferenceable(8) %4)
  call void @llvm.lifetime.end.p0(i64 8, ptr nonnull %4) #17
  %10 = fcmp une double %9, 1.000000e+00
  br i1 %10, label %11, label %24

11:                                               ; preds = %3
  call void @llvm.lifetime.start.p0(i64 8, ptr nonnull %5) #17
  %12 = load ptr, ptr %1, align 8, !tbaa !8
  %13 = getelementptr inbounds nuw i8, ptr %12, i64 168
  %14 = load ptr, ptr %13, align 8
  call void %14(ptr dead_on_unwind nonnull writable sret(%"class.Ipopt::SmartPtr.0") align 8 %5, ptr noundef nonnull align 8 dereferenceable(24) %1, ptr noundef nonnull align 8 dereferenceable(8) %2)
  call void @llvm.experimental.noalias.scope.decl(metadata !72)
  %15 = load ptr, ptr %5, align 8, !tbaa !20, !noalias !72
  %.not.i.i.i = icmp eq ptr %15, null
  br i1 %.not.i.i.i, label %.thread, label %16

.thread:                                          ; preds = %11
  store ptr null, ptr %0, align 8, !tbaa !14, !alias.scope !72
  br label %_ZN5Ipopt8SmartPtrINS_6VectorEED2Ev.exit

16:                                               ; preds = %11
  %17 = getelementptr inbounds nuw i8, ptr %15, i64 8
  %18 = load i32, ptr %17, align 8, !tbaa !3, !noalias !72
  store ptr %15, ptr %0, align 8, !tbaa !14, !alias.scope !72
  %19 = icmp eq i32 %18, 0
  br i1 %19, label %20, label %_ZN5Ipopt8SmartPtrINS_6VectorEED2Ev.exit

20:                                               ; preds = %16
  %21 = load ptr, ptr %15, align 8, !tbaa !8
  %22 = getelementptr inbounds nuw i8, ptr %21, i64 8
  %23 = load ptr, ptr %22, align 8
  call void %23(ptr noundef nonnull align 8 dereferenceable(205) %15) #17
  br label %_ZN5Ipopt8SmartPtrINS_6VectorEED2Ev.exit

_ZN5Ipopt8SmartPtrINS_6VectorEED2Ev.exit:         ; preds = %.thread, %16, %20
  call void @llvm.lifetime.end.p0(i64 8, ptr nonnull %5) #17
  br label %28

24:                                               ; preds = %3
  %25 = load ptr, ptr %1, align 8, !tbaa !8
  %26 = getelementptr inbounds nuw i8, ptr %25, i64 40
  %27 = load ptr, ptr %26, align 8
  call void %27(ptr dead_on_unwind writable sret(%"class.Ipopt::SmartPtr.1") align 8 %0, ptr noundef nonnull align 8 dereferenceable(24) %1, ptr noundef nonnull align 8 dereferenceable(8) %2)
  br label %28

28:                                               ; preds = %24, %_ZN5Ipopt8SmartPtrINS_6VectorEED2Ev.exit
  ret void
}